; Function Attrs: nounwind uwtable
define internal ptr @_testcapi_pyvectorcall_call(ptr readnone captures(none) %0, ptr noundef readonly captures(none) %1, i64 noundef %2) #0 {
  %4 = and i64 %2, -2
  %or.cond = icmp eq i64 %4, 2
  br i1 %or.cond, label %7, label %5

5:                                                ; preds = %3
  %6 = tail call i32 @_PyArg_CheckPositional(ptr noundef nonnull @.str.10, i64 noundef %2, i64 noundef 2, i64 noundef 3) #5
  %.not = icmp eq i32 %6, 0
  br i1 %.not, label %_testcapi_pyvectorcall_call_impl.exit, label %7

7:                                                ; preds = %3, %5
  %8 = load ptr, ptr %1, align 8, !tbaa !20
  %9 = getelementptr i8, ptr %1, i64 8
  %10 = load ptr, ptr %9, align 8, !tbaa !20
  %11 = icmp slt i64 %2, 3
  br i1 %11, label %.thread, label %12

12:                                               ; preds = %7
  %13 = getelementptr i8, ptr %1, i64 16
  %14 = load ptr, ptr %13, align 8, !tbaa !20
  %15 = getelementptr i8, ptr %10, i64 8
  %.val10.i = load ptr, ptr %15, align 8, !tbaa !3
  %16 = getelementptr i8, ptr %.val10.i, i64 168
  %.val12.i = load i64, ptr %16, align 8, !tbaa !24
  %17 = and i64 %.val12.i, 67108864
  %.not.i = icmp eq i64 %17, 0
  br i1 %.not.i, label %21, label %23

.thread:                                          ; preds = %7
  %18 = getelementptr i8, ptr %10, i64 8
  %.val10.i14 = load ptr, ptr %18, align 8, !tbaa !3
  %19 = getelementptr i8, ptr %.val10.i14, i64 168
  %.val12.i15 = load i64, ptr %19, align 8, !tbaa !24
  %20 = and i64 %.val12.i15, 67108864
  %.not.i16 = icmp eq i64 %20, 0
  br i1 %.not.i16, label %21, label %.thread18

21:                                               ; preds = %.thread, %12
  %22 = load ptr, ptr @PyExc_TypeError, align 8, !tbaa !20
  tail call void @PyErr_SetString(ptr noundef %22, ptr noundef nonnull @.str.25) #5
  br label %_testcapi_pyvectorcall_call_impl.exit

23:                                               ; preds = %12
  %.not8.i = icmp eq ptr %14, null
  br i1 %.not8.i, label %.thread18, label %24

24:                                               ; preds = %23
  %25 = getelementptr i8, ptr %14, i64 8
  %.val.i = load ptr, ptr %25, align 8, !tbaa !3
  %26 = getelementptr i8, ptr %.val.i, i64 168
  %.val11.i = load i64, ptr %26, align 8, !tbaa !24
  %27 = and i64 %.val11.i, 536870912
  %.not9.i = icmp eq i64 %27, 0
  br i1 %.not9.i, label %28, label %.thread18

28:                                               ; preds = %24
  %29 = load ptr, ptr @PyExc_TypeError, align 8, !tbaa !20
  tail call void @PyErr_SetString(ptr noundef %29, ptr noundef nonnull @.str.26) #5
  br label %_testcapi_pyvectorcall_call_impl.exit

.thread18:                                        ; preds = %.thread, %24, %23
  %.01721 = phi ptr [ %14, %24 ], [ null, %23 ], [ null, %.thread ]
  %30 = tail call ptr @PyVectorcall_Call(ptr noundef %8, ptr noundef nonnull %10, ptr noundef %.01721) #5
  br label %_testcapi_pyvectorcall_call_impl.exit

_testcapi_pyvectorcall_call_impl.exit:            ; preds = %.thread18, %28, %21, %5
  %.012 = phi ptr [ null, %5 ], [ %30, %.thread18 ], [ null, %28 ], [ null, %21 ]
  ret ptr %.012
}